; Function Attrs: mustprogress nofree norecurse nosync nounwind sspstrong willreturn memory(read, inaccessiblemem: none) uwtable
define internal range(i64 0, 21) i64 @rb_mod_singleton_p(i64 noundef %0) #5 {
  %2 = icmp eq i64 %0, 0
  %3 = and i64 %0, 7
  %4 = icmp ne i64 %3, 0
  %5 = or i1 %2, %4
  br i1 %5, label %RCLASS_SINGLETON_P.exit.thread, label %rbimpl_RB_TYPE_P_fastpath.exit.i

rbimpl_RB_TYPE_P_fastpath.exit.i:                 ; preds = %1
  %6 = inttoptr i64 %0 to ptr
  %7 = load i64, ptr %6, align 8, !tbaa !24
  %.fr2 = freeze i64 %7
  %8 = and i64 %.fr2, 31
  %9 = icmp eq i64 %8, 2
  br i1 %9, label %RCLASS_SINGLETON_P.exit, label %RCLASS_SINGLETON_P.exit.thread

RCLASS_SINGLETON_P.exit:                          ; preds = %rbimpl_RB_TYPE_P_fastpath.exit.i
  %10 = and i64 %.fr2, 8192
  %.not = icmp eq i64 %10, 0
  %spec.select = select i1 %.not, i64 0, i64 20
  br label %RCLASS_SINGLETON_P.exit.thread

RCLASS_SINGLETON_P.exit.thread:                   ; preds = %RCLASS_SINGLETON_P.exit, %1, %rbimpl_RB_TYPE_P_fastpath.exit.i
  %11 = phi i64 [ 0, %rbimpl_RB_TYPE_P_fastpath.exit.i ], [ 0, %1 ], [ %spec.select, %RCLASS_SINGLETON_P.exit ]
  ret i64 %11
}